	.cpu cortex-m4
	.eabi_attribute 27, 1
	.eabi_attribute 28, 1
	.eabi_attribute 20, 1
	.eabi_attribute 21, 1
	.eabi_attribute 23, 3
	.eabi_attribute 24, 1
	.eabi_attribute 25, 1
	.eabi_attribute 26, 1
	.eabi_attribute 30, 6
	.eabi_attribute 34, 1
	.eabi_attribute 18, 4
	.file	"nrf_twi_mngr.c"
	.text
.Ltext0:
	.section	.text.nrf_twi_mngr_is_idle,"ax",%progbits
	.align	1
	.syntax unified
	.thumb
	.thumb_func
	.fpu fpv4-sp-d16
	.type	nrf_twi_mngr_is_idle, %function
nrf_twi_mngr_is_idle:
.LFB191:
	.file 1 "F:\\MASTER\\TU-ILMENAU\\DECAWAVE\\dwm1001-examples-master (1)\\dwm1001-examples-master\\nRF5_SDK_14.2.0\\components\\libraries\\twi_mngr\\nrf_twi_mngr.h"
	.loc 1 329 0
	@ args = 0, pretend = 0, frame = 8
	@ frame_needed = 0, uses_anonymous_args = 0
	@ link register save eliminated.
	sub	sp, sp, #8
.LCFI0:
	str	r0, [sp, #4]
	.loc 1 330 0
	ldr	r3, [sp, #4]
	ldr	r3, [r3]
	ldr	r3, [r3]
	cmp	r3, #0
	ite	eq
	moveq	r3, #1
	movne	r3, #0
	uxtb	r3, r3
	.loc 1 331 0
	mov	r0, r3
	add	sp, sp, #8
.LCFI1:
	@ sp needed
	bx	lr
.LFE191:
	.size	nrf_twi_mngr_is_idle, .-nrf_twi_mngr_is_idle
	.section	.text.start_transfer,"ax",%progbits
	.align	1
	.syntax unified
	.thumb
	.thumb_func
	.fpu fpv4-sp-d16
	.type	start_transfer, %function
start_transfer:
.LFB192:
	.file 2 "F:\\MASTER\\TU-ILMENAU\\DECAWAVE\\dwm1001-examples-master (1)\\dwm1001-examples-master\\nRF5_SDK_14.2.0\\components\\libraries\\twi_mngr\\nrf_twi_mngr.c"
	.loc 2 54 0
	@ args = 0, pretend = 0, frame = 48
	@ frame_needed = 0, uses_anonymous_args = 0
	push	{lr}
.LCFI2:
	sub	sp, sp, #52
.LCFI3:
	str	r0, [sp, #4]
	.loc 2 58 0
	ldr	r3, [sp, #4]
	ldr	r3, [r3]
	str	r3, [sp, #40]
	.loc 2 62 0
	ldr	r3, [sp, #40]
	ldrb	r3, [r3, #24]
	strb	r3, [sp, #39]
	.loc 2 64 0
	ldr	r3, [sp, #40]
	ldr	r3, [r3]
	ldr	r2, [r3, #8]
	ldrb	r3, [sp, #39]	@ zero_extendqisi2
	lsls	r3, r3, #3
	.loc 2 63 0
	add	r3, r3, r2
	str	r3, [sp, #32]
	.loc 2 65 0
	ldr	r3, [sp, #32]
	ldrb	r3, [r3, #5]	@ zero_extendqisi2
	lsrs	r3, r3, #1
	strb	r3, [sp, #31]
	.loc 2 70 0
	ldrb	r3, [sp, #31]
	strb	r3, [sp, #13]
	.loc 2 71 0
	ldr	r3, [sp, #32]
	ldr	r3, [r3]
	str	r3, [sp, #16]
	.loc 2 72 0
	ldr	r3, [sp, #32]
	ldrb	r3, [r3, #4]	@ zero_extendqisi2
	strb	r3, [sp, #14]
	.loc 2 80 0
	ldr	r3, [sp, #32]
	ldrb	r3, [r3, #6]	@ zero_extendqisi2
	and	r3, r3, #1
	cmp	r3, #0
	beq	.L4
	.loc 2 81 0 discriminator 1
	ldr	r3, [sp, #32]
	ldrb	r3, [r3, #5]	@ zero_extendqisi2
	and	r3, r3, #1
	.loc 2 80 0 discriminator 1
	cmp	r3, #0
	bne	.L4
	.loc 2 83 0
	ldrb	r3, [sp, #39]	@ zero_extendqisi2
	adds	r3, r3, #1
	ldr	r2, [sp, #40]
	ldr	r2, [r2]
	ldrb	r2, [r2, #12]	@ zero_extendqisi2
	.loc 2 81 0
	cmp	r3, r2
	bge	.L4
	.loc 2 84 0
	ldr	r3, [sp, #32]
	ldrb	r3, [r3, #5]	@ zero_extendqisi2
	lsrs	r3, r3, #1
	uxtb	r2, r3
	.loc 2 85 0
	ldr	r3, [sp, #40]
	ldr	r3, [r3]
	ldr	r1, [r3, #8]
	ldrb	r3, [sp, #39]	@ zero_extendqisi2
	adds	r3, r3, #1
	lsls	r3, r3, #3
	add	r3, r3, r1
	ldrb	r3, [r3, #5]	@ zero_extendqisi2
	.loc 2 84 0
	lsrs	r3, r3, #1
	uxtb	r3, r3
	.loc 2 83 0
	cmp	r2, r3
	bne	.L4
.LBB2:
	.loc 2 89 0
	ldr	r3, [sp, #40]
	ldr	r3, [r3]
	ldr	r2, [r3, #8]
	ldrb	r3, [sp, #39]	@ zero_extendqisi2
	adds	r3, r3, #1
	lsls	r3, r3, #3
	.loc 2 88 0
	add	r3, r3, r2
	str	r3, [sp, #24]
	.loc 2 90 0
	ldr	r3, [sp, #24]
	ldr	r3, [r3]
	str	r3, [sp, #20]
	.loc 2 91 0
	ldr	r3, [sp, #24]
	ldrb	r3, [r3, #4]	@ zero_extendqisi2
	strb	r3, [sp, #15]
	.loc 2 92 0
	ldr	r3, [sp, #24]
	ldrb	r3, [r3, #5]	@ zero_extendqisi2
	and	r3, r3, #1
	.loc 2 93 0
	cmp	r3, #0
	beq	.L5
	.loc 2 93 0 is_stmt 0 discriminator 1
	movs	r3, #2
	b	.L6
.L5:
	.loc 2 93 0 discriminator 2
	movs	r3, #3
.L6:
	.loc 2 92 0 is_stmt 1
	strb	r3, [sp, #12]
	.loc 2 94 0
	ldr	r3, [sp, #24]
	ldrb	r3, [r3, #6]	@ zero_extendqisi2
	lsls	r3, r3, #5
	and	r3, r3, #32
	str	r3, [sp, #44]
	.loc 2 95 0
	ldr	r3, [sp, #40]
	ldrb	r3, [r3, #24]
	uxtb	r3, r3
	adds	r3, r3, #1
	uxtb	r2, r3
	ldr	r3, [sp, #40]
	strb	r2, [r3, #24]
.LBE2:
	.loc 2 87 0
	b	.L7
.L4:
	.loc 2 99 0
	ldr	r3, [sp, #32]
	ldrb	r3, [r3, #5]	@ zero_extendqisi2
	and	r3, r3, #1
	uxtb	r3, r3
	strb	r3, [sp, #12]
	.loc 2 101 0
	movs	r3, #0
	str	r3, [sp, #20]
	.loc 2 102 0
	movs	r3, #0
	strb	r3, [sp, #15]
	.loc 2 103 0
	ldr	r3, [sp, #32]
	ldrb	r3, [r3, #6]	@ zero_extendqisi2
	lsls	r3, r3, #5
	and	r3, r3, #32
	str	r3, [sp, #44]
.L7:
	.loc 2 106 0
	ldr	r3, [sp, #4]
	adds	r3, r3, #8
	add	r1, sp, #12
	ldr	r2, [sp, #44]
	mov	r0, r3
	bl	nrf_drv_twi_xfer
	mov	r3, r0
	.loc 2 107 0
	mov	r0, r3
	add	sp, sp, #52
.LCFI4:
	@ sp needed
	ldr	pc, [sp], #4
.LFE192:
	.size	start_transfer, .-start_transfer
	.section	.text.transaction_end_signal,"ax",%progbits
	.align	1
	.syntax unified
	.thumb
	.thumb_func
	.fpu fpv4-sp-d16
	.type	transaction_end_signal, %function
transaction_end_signal:
.LFB193:
	.loc 2 112 0
	@ args = 0, pretend = 0, frame = 16
	@ frame_needed = 0, uses_anonymous_args = 0
	push	{lr}
.LCFI5:
	sub	sp, sp, #20
.LCFI6:
	str	r0, [sp, #4]
	str	r1, [sp]
	.loc 2 115 0
	ldr	r3, [sp, #4]
	ldr	r3, [r3]
	ldr	r3, [r3]
	ldr	r3, [r3]
	cmp	r3, #0
	beq	.L11
.LBB3:
	.loc 2 119 0
	ldr	r3, [sp, #4]
	ldr	r3, [r3]
	ldr	r3, [r3]
	ldr	r3, [r3, #4]
	str	r3, [sp, #12]
	.loc 2 120 0
	ldr	r3, [sp, #4]
	ldr	r3, [r3]
	ldr	r3, [r3]
	ldr	r3, [r3]
	ldr	r1, [sp, #12]
	ldr	r0, [sp]
	blx	r3
.LVL0:
.L11:
.LBE3:
	.loc 2 122 0
	nop
	add	sp, sp, #20
.LCFI7:
	@ sp needed
	ldr	pc, [sp], #4
.LFE193:
	.size	transaction_end_signal, .-transaction_end_signal
	.section	.text.start_pending_transaction,"ax",%progbits
	.align	1
	.syntax unified
	.thumb
	.thumb_func
	.fpu fpv4-sp-d16
	.type	start_pending_transaction, %function
start_pending_transaction:
.LFB194:
	.loc 2 134 0
	@ args = 0, pretend = 0, frame = 32
	@ frame_needed = 0, uses_anonymous_args = 0
	push	{lr}
.LCFI8:
	sub	sp, sp, #36
.LCFI9:
	str	r0, [sp, #4]
	mov	r3, r1
	strb	r3, [sp, #3]
	.loc 2 138 0
	ldr	r3, [sp, #4]
	ldr	r3, [r3]
	str	r3, [sp, #24]
.L22:
.LBB4:
	.loc 2 142 0
	movs	r3, #0
	strb	r3, [sp, #31]
	.loc 2 144 0
	movs	r0, #0
	bl	app_util_critical_region_enter
	.loc 2 145 0
	ldrb	r3, [sp, #3]	@ zero_extendqisi2
	cmp	r3, #0
	bne	.L13
	.loc 2 145 0 is_stmt 0 discriminator 1
	ldr	r0, [sp, #4]
	bl	nrf_twi_mngr_is_idle
	mov	r3, r0
	cmp	r3, #0
	beq	.L14
.L13:
	.loc 2 147 0 is_stmt 1
	ldr	r3, [sp, #4]
	ldr	r3, [r3, #4]
	ldr	r1, [sp, #24]
	movs	r2, #0
	mov	r0, r3
	bl	nrf_queue_generic_pop
	mov	r3, r0
	cmp	r3, #0
	bne	.L15
	.loc 2 150 0
	movs	r3, #1
	strb	r3, [sp, #31]
	b	.L14
.L15:
	.loc 2 154 0
	ldr	r3, [sp, #24]
	movs	r2, #0
	str	r2, [r3]
.L14:
	.loc 2 157 0
	movs	r0, #0
	bl	app_util_critical_region_exit
	.loc 2 159 0
	ldrb	r3, [sp, #31]
	eor	r3, r3, #1
	uxtb	r3, r3
	cmp	r3, #0
	bne	.L23
.LBB5:
	.loc 2 168 0
	ldr	r3, [sp, #24]
	ldr	r3, [r3]
	ldr	r3, [r3, #16]
	.loc 2 169 0
	cmp	r3, #0
	bne	.L18
	.loc 2 169 0 is_stmt 0 discriminator 1
	ldr	r3, [sp, #24]
	adds	r3, r3, #4
	b	.L19
.L18:
	.loc 2 170 0 is_stmt 1 discriminator 2
	ldr	r3, [sp, #24]
	ldr	r3, [r3]
	.loc 2 169 0 discriminator 2
	ldr	r3, [r3, #16]
.L19:
	.loc 2 167 0
	str	r3, [sp, #20]
	.loc 2 172 0
	ldr	r3, [sp, #24]
	ldr	r3, [r3, #20]
	movs	r2, #16
	ldr	r1, [sp, #20]
	mov	r0, r3
	bl	memcmp
	mov	r3, r0
	cmp	r3, #0
	beq	.L20
.LBB6:
	.loc 2 175 0
	ldr	r3, [sp, #4]
	adds	r3, r3, #8
	mov	r0, r3
	bl	nrf_drv_twi_uninit
	.loc 2 176 0
	ldr	r3, [sp, #4]
	add	r0, r3, #8
	ldr	r3, [sp, #4]
	ldr	r2, .L25
	ldr	r1, [sp, #20]
	bl	nrf_drv_twi_init
	str	r0, [sp, #16]
	.loc 2 181 0
	ldr	r3, [sp, #4]
	adds	r3, r3, #8
	mov	r0, r3
	bl	nrf_drv_twi_enable
	.loc 2 183 0
	ldr	r3, [sp, #24]
	ldr	r2, [sp, #20]
	str	r2, [r3, #20]
.L20:
.LBE6:
	.loc 2 187 0
	ldr	r3, [sp, #24]
	movs	r2, #0
	strb	r2, [r3, #24]
	.loc 2 188 0
	ldr	r0, [sp, #4]
	bl	start_transfer
	str	r0, [sp, #12]
	.loc 2 191 0
	ldr	r3, [sp, #12]
	cmp	r3, #0
	beq	.L24
	.loc 2 199 0
	ldr	r1, [sp, #12]
	ldr	r0, [sp, #4]
	bl	transaction_end_signal
	.loc 2 201 0
	movs	r3, #1
	strb	r3, [sp, #3]
.LBE5:
.LBE4:
	.loc 2 141 0
	b	.L22
.L23:
.LBB8:
	.loc 2 161 0
	nop
	b	.L12
.L24:
.LBB7:
	.loc 2 193 0
	nop
.L12:
.LBE7:
.LBE8:
	.loc 2 204 0
	add	sp, sp, #36
.LCFI10:
	@ sp needed
	ldr	pc, [sp], #4
.L26:
	.align	2
.L25:
	.word	twi_event_handler
.LFE194:
	.size	start_pending_transaction, .-start_pending_transaction
	.section	.text.twi_event_handler,"ax",%progbits
	.align	1
	.syntax unified
	.thumb
	.thumb_func
	.fpu fpv4-sp-d16
	.type	twi_event_handler, %function
twi_event_handler:
.LFB195:
	.loc 2 209 0
	@ args = 0, pretend = 0, frame = 24
	@ frame_needed = 0, uses_anonymous_args = 0
	push	{lr}
.LCFI11:
	sub	sp, sp, #28
.LCFI12:
	str	r0, [sp, #4]
	str	r1, [sp]
	.loc 2 212 0
	ldr	r3, [sp]
	str	r3, [sp, #16]
	.loc 2 218 0
	ldr	r3, [sp, #4]
	ldrb	r3, [r3]	@ zero_extendqisi2
	cmp	r3, #0
	bne	.L28
.LBB9:
	.loc 2 220 0
	movs	r3, #0
	str	r3, [sp, #20]
	.loc 2 226 0
	ldr	r3, [sp, #16]
	ldr	r3, [r3]
	ldrb	r3, [r3, #24]
	strb	r3, [sp, #15]
	.loc 2 227 0
	ldrb	r3, [sp, #15]
	adds	r3, r3, #1
	strb	r3, [sp, #15]
	.loc 2 229 0
	ldr	r3, [sp, #16]
	ldr	r3, [r3]
	ldr	r3, [r3]
	ldrb	r3, [r3, #12]	@ zero_extendqisi2
	.loc 2 228 0
	ldrb	r2, [sp, #15]	@ zero_extendqisi2
	cmp	r2, r3
	bcs	.L31
	.loc 2 231 0
	ldr	r3, [sp, #16]
	ldr	r3, [r3]
	ldrb	r2, [sp, #15]
	strb	r2, [r3, #24]
	.loc 2 233 0
	ldr	r0, [sp, #16]
	bl	start_transfer
	str	r0, [sp, #20]
	.loc 2 235 0
	ldr	r3, [sp, #20]
	cmp	r3, #0
	bne	.L31
	.loc 2 239 0
	b	.L27
.L28:
.LBE9:
	.loc 2 248 0
	movs	r3, #3
	str	r3, [sp, #20]
.L31:
	.loc 2 253 0
	ldr	r1, [sp, #20]
	ldr	r0, [sp, #16]
	bl	transaction_end_signal
	.loc 2 257 0
	movs	r1, #1
	ldr	r0, [sp, #16]
	bl	start_pending_transaction
.L27:
	.loc 2 258 0
	add	sp, sp, #28
.LCFI13:
	@ sp needed
	ldr	pc, [sp], #4
.LFE195:
	.size	twi_event_handler, .-twi_event_handler
	.section	.text.nrf_twi_mngr_init,"ax",%progbits
	.align	1
	.global	nrf_twi_mngr_init
	.syntax unified
	.thumb
	.thumb_func
	.fpu fpv4-sp-d16
	.type	nrf_twi_mngr_init, %function
nrf_twi_mngr_init:
.LFB196:
	.loc 2 263 0
	@ args = 0, pretend = 0, frame = 16
	@ frame_needed = 0, uses_anonymous_args = 0
	push	{r4, lr}
.LCFI14:
	sub	sp, sp, #16
.LCFI15:
	str	r0, [sp, #4]
	str	r1, [sp]
	.loc 2 271 0
	ldr	r3, [sp, #4]
	add	r0, r3, #8
	ldr	r3, [sp, #4]
	ldr	r2, .L35
	ldr	r1, [sp]
	bl	nrf_drv_twi_init
	str	r0, [sp, #12]
	.loc 2 275 0
	ldr	r3, [sp, #12]
	cmp	r3, #0
	beq	.L33
	.loc 2 275 0 is_stmt 0 discriminator 1
	ldr	r3, [sp, #12]
	b	.L34
.L33:
	.loc 2 277 0 is_stmt 1
	ldr	r3, [sp, #4]
	adds	r3, r3, #8
	mov	r0, r3
	bl	nrf_drv_twi_enable
	.loc 2 279 0
	ldr	r3, [sp, #4]
	ldr	r3, [r3]
	movs	r2, #0
	str	r2, [r3]
	.loc 2 280 0
	ldr	r3, [sp, #4]
	ldr	r3, [r3]
	ldr	r2, [sp]
	adds	r4, r3, #4
	mov	r3, r2
	ldm	r3, {r0, r1, r2, r3}
	stm	r4, {r0, r1, r2, r3}
	.loc 2 282 0
	ldr	r3, [sp, #4]
	ldr	r2, [r3]
	.loc 2 281 0
	ldr	r3, [sp, #4]
	ldr	r3, [r3]
	.loc 2 282 0
	adds	r2, r2, #4
	.loc 2 281 0
	str	r2, [r3, #20]
	.loc 2 284 0
	movs	r3, #0
.L34:
	.loc 2 285 0
	mov	r0, r3
	add	sp, sp, #16
.LCFI16:
	@ sp needed
	pop	{r4, pc}
.L36:
	.align	2
.L35:
	.word	twi_event_handler
.LFE196:
	.size	nrf_twi_mngr_init, .-nrf_twi_mngr_init
	.section	.text.nrf_twi_mngr_uninit,"ax",%progbits
	.align	1
	.global	nrf_twi_mngr_uninit
	.syntax unified
	.thumb
	.thumb_func
	.fpu fpv4-sp-d16
	.type	nrf_twi_mngr_uninit, %function
nrf_twi_mngr_uninit:
.LFB197:
	.loc 2 289 0
	@ args = 0, pretend = 0, frame = 8
	@ frame_needed = 0, uses_anonymous_args = 0
	push	{lr}
.LCFI17:
	sub	sp, sp, #12
.LCFI18:
	str	r0, [sp, #4]
	.loc 2 292 0
	ldr	r3, [sp, #4]
	adds	r3, r3, #8
	mov	r0, r3
	bl	nrf_drv_twi_uninit
	.loc 2 294 0
	ldr	r3, [sp, #4]
	ldr	r3, [r3]
	movs	r2, #0
	str	r2, [r3]
	.loc 2 295 0
	nop
	add	sp, sp, #12
.LCFI19:
	@ sp needed
	ldr	pc, [sp], #4
.LFE197:
	.size	nrf_twi_mngr_uninit, .-nrf_twi_mngr_uninit
	.section	.text.nrf_twi_mngr_schedule,"ax",%progbits
	.align	1
	.global	nrf_twi_mngr_schedule
	.syntax unified
	.thumb
	.thumb_func
	.fpu fpv4-sp-d16
	.type	nrf_twi_mngr_schedule, %function
nrf_twi_mngr_schedule:
.LFB198:
	.loc 2 300 0
	@ args = 0, pretend = 0, frame = 16
	@ frame_needed = 0, uses_anonymous_args = 0
	push	{lr}
.LCFI20:
	sub	sp, sp, #20
.LCFI21:
	str	r0, [sp, #4]
	str	r1, [sp]
	.loc 2 306 0
	movs	r3, #0
	str	r3, [sp, #12]
	.loc 2 308 0
	ldr	r3, [sp, #4]
	ldr	r3, [r3, #4]
	mov	r2, sp
	mov	r1, r2
	mov	r0, r3
	bl	nrf_queue_push
	str	r0, [sp, #12]
	.loc 2 309 0
	ldr	r3, [sp, #12]
	cmp	r3, #0
	bne	.L39
	.loc 2 313 0
	movs	r1, #0
	ldr	r0, [sp, #4]
	bl	start_pending_transaction
.L39:
	.loc 2 316 0
	ldr	r3, [sp, #12]
	.loc 2 317 0
	mov	r0, r3
	add	sp, sp, #20
.LCFI22:
	@ sp needed
	ldr	pc, [sp], #4
.LFE198:
	.size	nrf_twi_mngr_schedule, .-nrf_twi_mngr_schedule
	.section	.text.internal_transaction_cb,"ax",%progbits
	.align	1
	.syntax unified
	.thumb
	.thumb_func
	.fpu fpv4-sp-d16
	.type	internal_transaction_cb, %function
internal_transaction_cb:
.LFB199:
	.loc 2 321 0
	@ args = 0, pretend = 0, frame = 16
	@ frame_needed = 0, uses_anonymous_args = 0
	@ link register save eliminated.
	sub	sp, sp, #16
.LCFI23:
	str	r0, [sp, #4]
	str	r1, [sp]
	.loc 2 322 0
	ldr	r3, [sp]
	str	r3, [sp, #12]
	.loc 2 324 0
	ldr	r3, [sp, #4]
	uxtb	r2, r3
	ldr	r3, [sp, #12]
	strb	r2, [r3, #1]
	.loc 2 325 0
	ldr	r3, [sp, #12]
	movs	r2, #0
	strb	r2, [r3]
	.loc 2 326 0
	nop
	add	sp, sp, #16
.LCFI24:
	@ sp needed
	bx	lr
.LFE199:
	.size	internal_transaction_cb, .-internal_transaction_cb
	.section	.text.nrf_twi_mngr_perform,"ax",%progbits
	.align	1
	.global	nrf_twi_mngr_perform
	.syntax unified
	.thumb
	.thumb_func
	.fpu fpv4-sp-d16
	.type	nrf_twi_mngr_perform, %function
nrf_twi_mngr_perform:
.LFB200:
	.loc 2 334 0
	@ args = 4, pretend = 0, frame = 48
	@ frame_needed = 0, uses_anonymous_args = 0
	push	{lr}
.LCFI25:
	sub	sp, sp, #52
.LCFI26:
	str	r0, [sp, #12]
	str	r1, [sp, #8]
	str	r2, [sp, #4]
	strb	r3, [sp, #3]
	.loc 2 339 0
	movs	r3, #0
	strh	r3, [sp, #40]	@ movhi
	movs	r3, #1
	strb	r3, [sp, #40]
	.loc 2 344 0
	ldr	r3, .L48
	str	r3, [sp, #20]
	add	r3, sp, #40
	str	r3, [sp, #24]
	ldr	r3, [sp, #4]
	str	r3, [sp, #28]
	ldrb	r3, [sp, #3]
	strb	r3, [sp, #32]
	ldr	r3, [sp, #8]
	str	r3, [sp, #36]
	.loc 2 353 0
	add	r3, sp, #20
	mov	r1, r3
	ldr	r0, [sp, #12]
	bl	nrf_twi_mngr_schedule
	str	r0, [sp, #44]
	.loc 2 354 0
	ldr	r3, [sp, #44]
	cmp	r3, #0
	beq	.L45
	.loc 2 354 0 is_stmt 0 discriminator 1
	ldr	r3, [sp, #44]
	b	.L47
.L46:
	.loc 2 358 0 is_stmt 1
	ldr	r3, [sp, #56]
	cmp	r3, #0
	beq	.L45
	.loc 2 360 0
	ldr	r3, [sp, #56]
	blx	r3
.LVL1:
.L45:
	.loc 2 356 0
	ldrb	r3, [sp, #40]
	uxtb	r3, r3
	cmp	r3, #0
	bne	.L46
	.loc 2 364 0
	ldrb	r3, [sp, #41]
	uxtb	r3, r3
.L47:
	.loc 2 365 0 discriminator 1
	mov	r0, r3
	add	sp, sp, #52
.LCFI27:
	@ sp needed
	ldr	pc, [sp], #4
.L49:
	.align	2
.L48:
	.word	internal_transaction_cb
.LFE200:
	.size	nrf_twi_mngr_perform, .-nrf_twi_mngr_perform
	.section	.debug_frame,"",%progbits
.Lframe0:
	.4byte	.LECIE0-.LSCIE0
.LSCIE0:
	.4byte	0xffffffff
	.byte	0x3
	.ascii	"\000"
	.uleb128 0x1
	.sleb128 -4
	.uleb128 0xe
	.byte	0xc
	.uleb128 0xd
	.uleb128 0
	.align	2
.LECIE0:
.LSFDE0:
	.4byte	.LEFDE0-.LASFDE0
.LASFDE0:
	.4byte	.Lframe0
	.4byte	.LFB191
	.4byte	.LFE191-.LFB191
	.byte	0x4
	.4byte	.LCFI0-.LFB191
	.byte	0xe
	.uleb128 0x8
	.byte	0x4
	.4byte	.LCFI1-.LCFI0
	.byte	0xe
	.uleb128 0
	.align	2
.LEFDE0:
.LSFDE2:
	.4byte	.LEFDE2-.LASFDE2
.LASFDE2:
	.4byte	.Lframe0
	.4byte	.LFB192
	.4byte	.LFE192-.LFB192
	.byte	0x4
	.4byte	.LCFI2-.LFB192
	.byte	0xe
	.uleb128 0x4
	.byte	0x8e
	.uleb128 0x1
	.byte	0x4
	.4byte	.LCFI3-.LCFI2
	.byte	0xe
	.uleb128 0x38
	.byte	0x4
	.4byte	.LCFI4-.LCFI3
	.byte	0xe
	.uleb128 0x4
	.align	2
.LEFDE2:
.LSFDE4:
	.4byte	.LEFDE4-.LASFDE4
.LASFDE4:
	.4byte	.Lframe0
	.4byte	.LFB193
	.4byte	.LFE193-.LFB193
	.byte	0x4
	.4byte	.LCFI5-.LFB193
	.byte	0xe
	.uleb128 0x4
	.byte	0x8e
	.uleb128 0x1
	.byte	0x4
	.4byte	.LCFI6-.LCFI5
	.byte	0xe
	.uleb128 0x18
	.byte	0x4
	.4byte	.LCFI7-.LCFI6
	.byte	0xe
	.uleb128 0x4
	.align	2
.LEFDE4:
.LSFDE6:
	.4byte	.LEFDE6-.LASFDE6
.LASFDE6:
	.4byte	.Lframe0
	.4byte	.LFB194
	.4byte	.LFE194-.LFB194
	.byte	0x4
	.4byte	.LCFI8-.LFB194
	.byte	0xe
	.uleb128 0x4
	.byte	0x8e
	.uleb128 0x1
	.byte	0x4
	.4byte	.LCFI9-.LCFI8
	.byte	0xe
	.uleb128 0x28
	.byte	0x4
	.4byte	.LCFI10-.LCFI9
	.byte	0xe
	.uleb128 0x4
	.align	2
.LEFDE6:
.LSFDE8:
	.4byte	.LEFDE8-.LASFDE8
.LASFDE8:
	.4byte	.Lframe0
	.4byte	.LFB195
	.4byte	.LFE195-.LFB195
	.byte	0x4
	.4byte	.LCFI11-.LFB195
	.byte	0xe
	.uleb128 0x4
	.byte	0x8e
	.uleb128 0x1
	.byte	0x4
	.4byte	.LCFI12-.LCFI11
	.byte	0xe
	.uleb128 0x20
	.byte	0x4
	.4byte	.LCFI13-.LCFI12
	.byte	0xe
	.uleb128 0x4
	.align	2
.LEFDE8:
.LSFDE10:
	.4byte	.LEFDE10-.LASFDE10
.LASFDE10:
	.4byte	.Lframe0
	.4byte	.LFB196
	.4byte	.LFE196-.LFB196
	.byte	0x4
	.4byte	.LCFI14-.LFB196
	.byte	0xe
	.uleb128 0x8
	.byte	0x84
	.uleb128 0x2
	.byte	0x8e
	.uleb128 0x1
	.byte	0x4
	.4byte	.LCFI15-.LCFI14
	.byte	0xe
	.uleb128 0x18
	.byte	0x4
	.4byte	.LCFI16-.LCFI15
	.byte	0xe
	.uleb128 0x8
	.align	2
.LEFDE10:
.LSFDE12:
	.4byte	.LEFDE12-.LASFDE12
.LASFDE12:
	.4byte	.Lframe0
	.4byte	.LFB197
	.4byte	.LFE197-.LFB197
	.byte	0x4
	.4byte	.LCFI17-.LFB197
	.byte	0xe
	.uleb128 0x4
	.byte	0x8e
	.uleb128 0x1
	.byte	0x4
	.4byte	.LCFI18-.LCFI17
	.byte	0xe
	.uleb128 0x10
	.byte	0x4
	.4byte	.LCFI19-.LCFI18
	.byte	0xe
	.uleb128 0x4
	.align	2
.LEFDE12:
.LSFDE14:
	.4byte	.LEFDE14-.LASFDE14
.LASFDE14:
	.4byte	.Lframe0
	.4byte	.LFB198
	.4byte	.LFE198-.LFB198
	.byte	0x4
	.4byte	.LCFI20-.LFB198
	.byte	0xe
	.uleb128 0x4
	.byte	0x8e
	.uleb128 0x1
	.byte	0x4
	.4byte	.LCFI21-.LCFI20
	.byte	0xe
	.uleb128 0x18
	.byte	0x4
	.4byte	.LCFI22-.LCFI21
	.byte	0xe
	.uleb128 0x4
	.align	2
.LEFDE14:
.LSFDE16:
	.4byte	.LEFDE16-.LASFDE16
.LASFDE16:
	.4byte	.Lframe0
	.4byte	.LFB199
	.4byte	.LFE199-.LFB199
	.byte	0x4
	.4byte	.LCFI23-.LFB199
	.byte	0xe
	.uleb128 0x10
	.byte	0x4
	.4byte	.LCFI24-.LCFI23
	.byte	0xe
	.uleb128 0
	.align	2
.LEFDE16:
.LSFDE18:
	.4byte	.LEFDE18-.LASFDE18
.LASFDE18:
	.4byte	.Lframe0
	.4byte	.LFB200
	.4byte	.LFE200-.LFB200
	.byte	0x4
	.4byte	.LCFI25-.LFB200
	.byte	0xe
	.uleb128 0x4
	.byte	0x8e
	.uleb128 0x1
	.byte	0x4
	.4byte	.LCFI26-.LCFI25
	.byte	0xe
	.uleb128 0x38
	.byte	0x4
	.4byte	.LCFI27-.LCFI26
	.byte	0xe
	.uleb128 0x4
	.align	2
.LEFDE18:
	.text
.Letext0:
	.file 3 "C:/Program Files/SEGGER/SEGGER Embedded Studio for ARM 4.16/include/stdint.h"
	.file 4 "C:/Program Files/SEGGER/SEGGER Embedded Studio for ARM 4.16/include/__crossworks.h"
	.file 5 "C:/Program Files/SEGGER/SEGGER Embedded Studio for ARM 4.16/include/string.h"
	.file 6 "../../../nRF5_SDK_14.2.0/components/libraries/util/sdk_errors.h"
	.file 7 "C:/Users/febby/AppData/Local/SEGGER/SEGGER Embedded Studio/v3/packages/CMSIS_5/CMSIS/Core/Include/core_cm4.h"
	.file 8 "C:/Users/febby/AppData/Local/SEGGER/SEGGER Embedded Studio/v3/packages/nRF/CMSIS/Device/Include/system_nrf52.h"
	.file 9 "C:/Users/febby/AppData/Local/SEGGER/SEGGER Embedded Studio/v3/packages/nRF/CMSIS/Device/Include/nrf52.h"
	.file 10 "../../../nRF5_SDK_14.2.0/components/libraries/util/app_util.h"
	.file 11 "../../../nRF5_SDK_14.2.0/components/drivers_nrf/hal/nrf_twi.h"
	.file 12 "../../../nRF5_SDK_14.2.0/components/drivers_nrf/twi_master/nrf_drv_twi.h"
	.file 13 "C:/Program Files/SEGGER/SEGGER Embedded Studio for ARM 4.16/include/stdio.h"
	.file 14 "../../../nRF5_SDK_14.2.0/components/libraries/queue/nrf_queue.h"